target datalayout = "e-m:e-p270:32:32-p271:32:32-p272:64:64-i64:64-i128:128-f80:128-n8:16:32:64-S128"
target triple = "x86_64-pc-linux-gnu"

%struct.quicklistNode = type { ptr, ptr, ptr, i64, i32 }
%struct.quicklistLZF = type { i64, [0 x i8] }

; Function Attrs: nounwind uwtable
define dso_local i32 @__quicklistDecompressNode(ptr noundef %0) #0 {
  %2 = alloca i32, align 4
  %3 = alloca ptr, align 8
  %4 = alloca ptr, align 8
  %5 = alloca ptr, align 8
  %6 = alloca i32, align 4
  store ptr %0, ptr %3, align 8, !tbaa !12
  %7 = load ptr, ptr %3, align 8, !tbaa !12
  %8 = getelementptr inbounds nuw %struct.quicklistNode, ptr %7, i32 0, i32 4
  %9 = load i32, ptr %8, align 8
  %10 = and i32 %9, -1048577
  %11 = or i32 %10, 0
  store i32 %11, ptr %8, align 8
  call void @llvm.lifetime.start.p0(i64 8, ptr %4) #10
  %12 = load ptr, ptr %3, align 8, !tbaa !12
  %13 = getelementptr inbounds nuw %struct.quicklistNode, ptr %12, i32 0, i32 3
  %14 = load i64, ptr %13, align 8, !tbaa !19
  %15 = call noalias ptr @zmalloc(i64 noundef %14) #11
  store ptr %15, ptr %4, align 8, !tbaa !29
  call void @llvm.lifetime.start.p0(i64 8, ptr %5) #10
  %16 = load ptr, ptr %3, align 8, !tbaa !12
  %17 = getelementptr inbounds nuw %struct.quicklistNode, ptr %16, i32 0, i32 2
  %18 = load ptr, ptr %17, align 8, !tbaa !16
  store ptr %18, ptr %5, align 8, !tbaa !27
  %19 = load ptr, ptr %5, align 8, !tbaa !27
  %20 = getelementptr inbounds nuw %struct.quicklistLZF, ptr %19, i32 0, i32 1
  %21 = getelementptr inbounds [0 x i8], ptr %20, i64 0, i64 0
  %22 = load ptr, ptr %5, align 8, !tbaa !27
  %23 = getelementptr inbounds nuw %struct.quicklistLZF, ptr %22, i32 0, i32 0
  %24 = load i64, ptr %23, align 8, !tbaa !5
  %25 = load ptr, ptr %4, align 8, !tbaa !29
  %26 = load ptr, ptr %3, align 8, !tbaa !12
  %27 = getelementptr inbounds nuw %struct.quicklistNode, ptr %26, i32 0, i32 3
  %28 = load i64, ptr %27, align 8, !tbaa !19
  %29 = call i64 @lzf_decompress(ptr noundef %21, i64 noundef %24, ptr noundef %25, i64 noundef %28)
  %30 = icmp eq i64 %29, 0
  br i1 %30, label %31, label %33

31:                                               ; preds = %1
  %32 = load ptr, ptr %4, align 8, !tbaa !29
  call void @zfree(ptr noundef %32)
  store i32 0, ptr %2, align 4
  store i32 1, ptr %6, align 4
  br label %43

33:                                               ; preds = %1
  %34 = load ptr, ptr %5, align 8, !tbaa !27
  call void @zfree(ptr noundef %34)
  %35 = load ptr, ptr %4, align 8, !tbaa !29
  %36 = load ptr, ptr %3, align 8, !tbaa !12
  %37 = getelementptr inbounds nuw %struct.quicklistNode, ptr %36, i32 0, i32 2
  store ptr %35, ptr %37, align 8, !tbaa !16
  %38 = load ptr, ptr %3, align 8, !tbaa !12
  %39 = getelementptr inbounds nuw %struct.quicklistNode, ptr %38, i32 0, i32 4
  %40 = load i32, ptr %39, align 8
  %41 = and i32 %40, -196609
  %42 = or i32 %41, 65536
  store i32 %42, ptr %39, align 8
  store i32 1, ptr %2, align 4
  store i32 1, ptr %6, align 4
  br label %43

43:                                               ; preds = %33, %31
  call void @llvm.lifetime.end.p0(i64 8, ptr %5) #10
  call void @llvm.lifetime.end.p0(i64 8, ptr %4) #10
  %44 = load i32, ptr %2, align 4
  ret i32 %44
}