; Function Attrs: nounwind uwtable
define dso_local range(i32 0, 2) i32 @__quicklistDecompressNode(ptr noundef captures(none) %0) local_unnamed_addr #1 {
  %2 = getelementptr inbounds nuw i8, ptr %0, i64 32
  %3 = load i32, ptr %2, align 8
  %4 = and i32 %3, -1048577
  store i32 %4, ptr %2, align 8
  %5 = getelementptr inbounds nuw i8, ptr %0, i64 24
  %6 = load i64, ptr %5, align 8, !tbaa !15
  %7 = tail call noalias ptr @zmalloc(i64 noundef %6) #22
  %8 = getelementptr inbounds nuw i8, ptr %0, i64 16
  %9 = load ptr, ptr %8, align 8, !tbaa !9
  %10 = getelementptr inbounds nuw i8, ptr %9, i64 8
  %11 = load i64, ptr %9, align 8, !tbaa !5
  %12 = load i64, ptr %5, align 8, !tbaa !15
  %13 = tail call i64 @lzf_decompress(ptr noundef nonnull %10, i64 noundef %11, ptr noundef %7, i64 noundef %12) #23
  %14 = icmp eq i64 %13, 0
  br i1 %14, label %15, label %16

15:                                               ; preds = %1
  tail call void @zfree(ptr noundef %7) #23
  br label %20

16:                                               ; preds = %1
  tail call void @zfree(ptr noundef nonnull %9) #23
  store ptr %7, ptr %8, align 8, !tbaa !9
  %17 = load i32, ptr %2, align 8
  %18 = and i32 %17, -196609
  %19 = or disjoint i32 %18, 65536
  store i32 %19, ptr %2, align 8
  br label %20

20:                                               ; preds = %16, %15
  %.0 = phi i32 [ 0, %15 ], [ 1, %16 ]
  ret i32 %.0
}